; Function Attrs: nounwind sspstrong uwtable
define internal ptr @riscv_gdb_get_dynamic_xml(ptr noundef %cs, ptr noundef readonly captures(none) %xmlname) #3 {
entry:
  %call.i = tail call ptr @object_dynamic_cast_assert(ptr noundef %cs, ptr noundef nonnull @.str.250, ptr noundef nonnull @.str.282, i32 noundef 46, ptr noundef nonnull @__func__.RISCV_CPU) #14
  %call1 = tail call i32 @strcmp(ptr noundef nonnull dereferenceable(1) %xmlname, ptr noundef nonnull dereferenceable(14) @.str.348) #16
  %cmp = icmp eq i32 %call1, 0
  br i1 %cmp, label %if.then, label %if.else

if.then:                                          ; preds = %entry
  %dyn_csr_xml = getelementptr inbounds nuw i8, ptr %call.i, i64 15296
  %0 = load ptr, ptr %dyn_csr_xml, align 16
  br label %return

if.else:                                          ; preds = %entry
  %call2 = tail call i32 @strcmp(ptr noundef nonnull dereferenceable(1) %xmlname, ptr noundef nonnull dereferenceable(17) @.str.349) #16
  %cmp3 = icmp eq i32 %call2, 0
  br i1 %cmp3, label %if.then4, label %return

if.then4:                                         ; preds = %if.else
  %dyn_vreg_xml = getelementptr inbounds nuw i8, ptr %call.i, i64 15304
  %1 = load ptr, ptr %dyn_vreg_xml, align 8
  br label %return

return:                                           ; preds = %if.else, %if.then4, %if.then
  %retval.0 = phi ptr [ %0, %if.then ], [ %1, %if.then4 ], [ null, %if.else ]
  ret ptr %retval.0
}